target datalayout = "e-m:e-p270:32:32-p271:32:32-p272:64:64-i64:64-i128:128-f80:128-n8:16:32:64-S128"
target triple = "x86_64-unknown-linux-gnu"

%struct.alts_grpc_handshaker_client = type { %struct.alts_handshaker_client, %struct.gpr_refcount, ptr, ptr, ptr, %struct.grpc_closure, ptr, ptr, i8, %struct.grpc_metadata_array, ptr, ptr, ptr, %struct.grpc_slice, i8, %struct.grpc_slice, ptr, i64, %struct.grpc_closure, i32, %struct.grpc_slice, %"class.absl::lts_20230802::Mutex", i8, ptr, i64, ptr }
%struct.alts_handshaker_client = type { ptr }
%struct.gpr_refcount = type { i64 }
%struct.grpc_metadata_array = type { i64, i64, ptr }
%struct.grpc_closure = type { %union.anon, ptr, ptr, %union.anon.0 }
%union.anon = type { ptr }
%union.anon.0 = type { i64 }
%struct.grpc_slice = type { ptr, %"union.grpc_slice::grpc_slice_data" }
%"union.grpc_slice::grpc_slice_data" = type { %"struct.grpc_slice::grpc_slice_data::grpc_slice_refcounted", [8 x i8] }
%"struct.grpc_slice::grpc_slice_data::grpc_slice_refcounted" = type { i64, ptr }
%"class.absl::lts_20230802::Mutex" = type { %"struct.std::atomic" }
%"struct.std::atomic" = type { %"struct.std::__atomic_base" }
%"struct.std::__atomic_base" = type { i64 }

@.str = private unnamed_addr constant [142 x i8] c"generated/home/dtcxzyw/WorkSpace/Projects/compilers/llvm-opt-benchmark/bench/grpc/grpc/src/core/tsi/alts/handshaker/alts_handshaker_client.cc\00", align 1
@.str.1 = private unnamed_addr constant [13 x i8] c"c != nullptr\00", align 1
@.str.17 = private unnamed_addr constant [17 x i8] c"client->cb == cb\00", align 1
@.str.18 = private unnamed_addr constant [31 x i8] c"client->user_data == user_data\00", align 1
@.str.19 = private unnamed_addr constant [53 x i8] c"grpc_slice_cmp(client->recv_bytes, *recv_bytes) == 0\00", align 1
@.str.20 = private unnamed_addr constant [106 x i8] c"alts_tsi_handshaker_get_has_sent_start_message_for_testing( client->handshaker) == has_sent_start_message\00", align 1

; Function Attrs: mustprogress uwtable
define void @_ZN9grpc_core8internal47alts_handshaker_client_check_fields_for_testingEP22alts_handshaker_clientPFv10tsi_resultPvPKhmP21tsi_handshaker_resultES4_bP10grpc_slice(ptr noundef %c, ptr noundef %cb, ptr noundef %user_data, i1 noundef zeroext %has_sent_start_message, ptr noundef %recv_bytes) #4 {
entry:
  %c.addr = alloca ptr, align 8
  %cb.addr = alloca ptr, align 8
  %user_data.addr = alloca ptr, align 8
  %has_sent_start_message.addr = alloca i8, align 1
  %recv_bytes.addr = alloca ptr, align 8
  %client = alloca ptr, align 8
  %agg.tmp = alloca %struct.grpc_slice, align 8
  %agg.tmp19 = alloca %struct.grpc_slice, align 8
  store ptr %c, ptr %c.addr, align 8
  store ptr %cb, ptr %cb.addr, align 8
  store ptr %user_data, ptr %user_data.addr, align 8
  %frombool = zext i1 %has_sent_start_message to i8
  store i8 %frombool, ptr %has_sent_start_message.addr, align 1
  store ptr %recv_bytes, ptr %recv_bytes.addr, align 8
  br label %do.body

do.body:                                          ; preds = %entry
  %0 = load ptr, ptr %c.addr, align 8
  %cmp = icmp ne ptr %0, null
  %lnot = xor i1 %cmp, true
  br i1 %lnot, label %if.then, label %if.end

if.then:                                          ; preds = %do.body
  call void @gpr_assertion_failed(ptr noundef @.str, i32 noundef 816, ptr noundef @.str.1) #16
  unreachable

if.end:                                           ; preds = %do.body
  br label %do.end

do.end:                                           ; preds = %if.end
  %1 = load ptr, ptr %c.addr, align 8
  store ptr %1, ptr %client, align 8
  br label %do.body1

do.body1:                                         ; preds = %do.end
  %2 = load ptr, ptr %client, align 8
  %cb2 = getelementptr inbounds %struct.alts_grpc_handshaker_client, ptr %2, i32 0, i32 10
  %3 = load ptr, ptr %cb2, align 8
  %4 = load ptr, ptr %cb.addr, align 8
  %cmp3 = icmp eq ptr %3, %4
  %lnot4 = xor i1 %cmp3, true
  br i1 %lnot4, label %if.then5, label %if.end6

if.then5:                                         ; preds = %do.body1
  call void @gpr_assertion_failed(ptr noundef @.str, i32 noundef 819, ptr noundef @.str.17) #16
  unreachable

if.end6:                                          ; preds = %do.body1
  br label %do.end7

do.end7:                                          ; preds = %if.end6
  br label %do.body8

do.body8:                                         ; preds = %do.end7
  %5 = load ptr, ptr %client, align 8
  %user_data9 = getelementptr inbounds %struct.alts_grpc_handshaker_client, ptr %5, i32 0, i32 11
  %6 = load ptr, ptr %user_data9, align 8
  %7 = load ptr, ptr %user_data.addr, align 8
  %cmp10 = icmp eq ptr %6, %7
  %lnot11 = xor i1 %cmp10, true
  br i1 %lnot11, label %if.then12, label %if.end13

if.then12:                                        ; preds = %do.body8
  call void @gpr_assertion_failed(ptr noundef @.str, i32 noundef 820, ptr noundef @.str.18) #16
  unreachable

if.end13:                                         ; preds = %do.body8
  br label %do.end14

do.end14:                                         ; preds = %if.end13
  %8 = load ptr, ptr %recv_bytes.addr, align 8
  %cmp15 = icmp ne ptr %8, null
  br i1 %cmp15, label %if.then16, label %if.end25

if.then16:                                        ; preds = %do.end14
  br label %do.body17

do.body17:                                        ; preds = %if.then16
  %9 = load ptr, ptr %client, align 8
  %recv_bytes18 = getelementptr inbounds %struct.alts_grpc_handshaker_client, ptr %9, i32 0, i32 15
  call void @llvm.memcpy.p0.p0.i64(ptr align 8 %agg.tmp, ptr align 8 %recv_bytes18, i64 32, i1 false)
  %10 = load ptr, ptr %recv_bytes.addr, align 8
  call void @llvm.memcpy.p0.p0.i64(ptr align 8 %agg.tmp19, ptr align 8 %10, i64 32, i1 false)
  %call = call i32 @grpc_slice_cmp(ptr noundef byval(%struct.grpc_slice) align 8 %agg.tmp, ptr noundef byval(%struct.grpc_slice) align 8 %agg.tmp19)
  %cmp20 = icmp eq i32 %call, 0
  %lnot21 = xor i1 %cmp20, true
  br i1 %lnot21, label %if.then22, label %if.end23

if.then22:                                        ; preds = %do.body17
  call void @gpr_assertion_failed(ptr noundef @.str, i32 noundef 822, ptr noundef @.str.19) #16
  unreachable

if.end23:                                         ; preds = %do.body17
  br label %do.end24

do.end24:                                         ; preds = %if.end23
  br label %if.end25

if.end25:                                         ; preds = %do.end24, %do.end14
  br label %do.body26

do.body26:                                        ; preds = %if.end25
  %11 = load ptr, ptr %client, align 8
  %handshaker = getelementptr inbounds %struct.alts_grpc_handshaker_client, ptr %11, i32 0, i32 2
  %12 = load ptr, ptr %handshaker, align 8
  %call27 = call noundef zeroext i1 @_ZN9grpc_core8internal58alts_tsi_handshaker_get_has_sent_start_message_for_testingEP19alts_tsi_handshaker(ptr noundef %12)
  %conv = zext i1 %call27 to i32
  %13 = load i8, ptr %has_sent_start_message.addr, align 1
  %tobool = trunc i8 %13 to i1
  %conv28 = zext i1 %tobool to i32
  %cmp29 = icmp eq i32 %conv, %conv28
  %lnot30 = xor i1 %cmp29, true
  br i1 %lnot30, label %if.then32, label %if.end33

if.then32:                                        ; preds = %do.body26
  call void @gpr_assertion_failed(ptr noundef @.str, i32 noundef 825, ptr noundef @.str.20) #16
  unreachable

if.end33:                                         ; preds = %do.body26
  br label %do.end34

do.end34:                                         ; preds = %if.end33
  ret void
}