; Function Attrs: mustprogress uwtable
define void @_ZN9grpc_core8internal47alts_handshaker_client_check_fields_for_testingEP22alts_handshaker_clientPFv10tsi_resultPvPKhmP21tsi_handshaker_resultES4_bP10grpc_slice(ptr noundef readonly %c, ptr noundef readnone %cb, ptr noundef readnone %user_data, i1 noundef zeroext %has_sent_start_message, ptr noundef readonly %recv_bytes) local_unnamed_addr #3 {
entry:
  %cmp.not = icmp eq ptr %c, null
  br i1 %cmp.not, label %if.then, label %do.end

if.then:                                          ; preds = %entry
  tail call void @gpr_assertion_failed(ptr noundef nonnull @.str, i32 noundef 816, ptr noundef nonnull @.str.1) #17
  unreachable

do.end:                                           ; preds = %entry
  %cb2 = getelementptr inbounds i8, ptr %c, i64 120
  %0 = load ptr, ptr %cb2, align 8
  %cmp3.not = icmp eq ptr %0, %cb
  br i1 %cmp3.not, label %do.body8, label %if.then5

if.then5:                                         ; preds = %do.end
  tail call void @gpr_assertion_failed(ptr noundef nonnull @.str, i32 noundef 819, ptr noundef nonnull @.str.17) #17
  unreachable

do.body8:                                         ; preds = %do.end
  %user_data9 = getelementptr inbounds i8, ptr %c, i64 128
  %1 = load ptr, ptr %user_data9, align 8
  %cmp10.not = icmp eq ptr %1, %user_data
  br i1 %cmp10.not, label %do.end14, label %if.then12

if.then12:                                        ; preds = %do.body8
  tail call void @gpr_assertion_failed(ptr noundef nonnull @.str, i32 noundef 820, ptr noundef nonnull @.str.18) #17
  unreachable

do.end14:                                         ; preds = %do.body8
  %cmp15.not = icmp eq ptr %recv_bytes, null
  br i1 %cmp15.not, label %do.body26, label %do.body17

do.body17:                                        ; preds = %do.end14
  %recv_bytes18 = getelementptr inbounds i8, ptr %c, i64 184
  %call = tail call i32 @grpc_slice_cmp(ptr noundef nonnull byval(%struct.grpc_slice) align 8 %recv_bytes18, ptr noundef nonnull byval(%struct.grpc_slice) align 8 %recv_bytes)
  %cmp20.not = icmp eq i32 %call, 0
  br i1 %cmp20.not, label %do.body26, label %if.then22

if.then22:                                        ; preds = %do.body17
  tail call void @gpr_assertion_failed(ptr noundef nonnull @.str, i32 noundef 822, ptr noundef nonnull @.str.19) #17
  unreachable

do.body26:                                        ; preds = %do.end14, %do.body17
  %handshaker = getelementptr inbounds i8, ptr %c, i64 16
  %2 = load ptr, ptr %handshaker, align 8
  %call27 = tail call noundef zeroext i1 @_ZN9grpc_core8internal58alts_tsi_handshaker_get_has_sent_start_message_for_testingEP19alts_tsi_handshaker(ptr noundef %2)
  %3 = xor i1 %call27, %has_sent_start_message
  br i1 %3, label %if.then32, label %do.end34

if.then32:                                        ; preds = %do.body26
  tail call void @gpr_assertion_failed(ptr noundef nonnull @.str, i32 noundef 825, ptr noundef nonnull @.str.20) #17
  unreachable

do.end34:                                         ; preds = %do.body26
  ret void
}